target datalayout = "e-m:e-p270:32:32-p271:32:32-p272:64:64-i64:64-i128:128-f80:128-n8:16:32:64-S128"
target triple = "x86_64-pc-linux-gnu"

%struct.expert_field = type { i32, i32 }

@hf_ldp_tlv_mac = internal global i32 0, align 4
@ett_ldp_tlv_val = internal global i32 0, align 4
@ei_ldp_tlv_fec_len = internal global %struct.expert_field zeroinitializer, align 4
@.str.1036 = private unnamed_addr constant [55 x i8] c"Error processing TLV: Extra data at end of path vector\00", align 1
@.str.1048 = private unnamed_addr constant [14 x i8] c"MAC addresses\00", align 1

; Function Attrs: null_pointer_is_valid sspstrong uwtable
define internal void @dissect_tlv_mac(ptr noundef %0, ptr noundef %1, i32 noundef %2, ptr noundef %3, i32 noundef %4) #0 {
  %6 = alloca ptr, align 8
  %7 = alloca ptr, align 8
  %8 = alloca i32, align 4
  %9 = alloca ptr, align 8
  %10 = alloca i32, align 4
  %11 = alloca ptr, align 8
  store ptr %0, ptr %6, align 8
  store ptr %1, ptr %7, align 8
  store i32 %2, ptr %8, align 4
  store ptr %3, ptr %9, align 8
  store i32 %4, ptr %10, align 4
  call void @llvm.lifetime.start.p0(i64 8, ptr %11) #7
  %12 = load ptr, ptr %9, align 8
  %13 = load ptr, ptr %6, align 8
  %14 = load i32, ptr %8, align 4
  %15 = load i32, ptr %10, align 4
  %16 = load i32, ptr @ett_ldp_tlv_val, align 4
  %17 = call ptr @proto_tree_add_subtree(ptr noundef %12, ptr noundef %13, i32 noundef %14, i32 noundef %15, i32 noundef %16, ptr noundef null, ptr noundef @.str.1048)
  store ptr %17, ptr %11, align 8
  br label %18

18:                                               ; preds = %27, %5
  %19 = load i32, ptr %10, align 4
  %20 = icmp sge i32 %19, 6
  br i1 %20, label %21, label %32

21:                                               ; preds = %18
  %22 = load ptr, ptr %11, align 8
  %23 = load i32, ptr @hf_ldp_tlv_mac, align 4
  %24 = load ptr, ptr %6, align 8
  %25 = load i32, ptr %8, align 4
  %26 = call ptr @proto_tree_add_item(ptr noundef %22, i32 noundef %23, ptr noundef %24, i32 noundef %25, i32 noundef 6, i32 noundef 0)
  br label %27

27:                                               ; preds = %21
  %28 = load i32, ptr %8, align 4
  %29 = add i32 %28, 6
  store i32 %29, ptr %8, align 4
  %30 = load i32, ptr %10, align 4
  %31 = sub i32 %30, 6
  store i32 %31, ptr %10, align 4
  br label %18, !llvm.loop !20

32:                                               ; preds = %18
  %33 = load i32, ptr %10, align 4
  %34 = icmp ne i32 %33, 0
  br i1 %34, label %35, label %42

35:                                               ; preds = %32
  %36 = load ptr, ptr %11, align 8
  %37 = load ptr, ptr %7, align 8
  %38 = load ptr, ptr %6, align 8
  %39 = load i32, ptr %8, align 4
  %40 = load i32, ptr %10, align 4
  %41 = call ptr (ptr, ptr, ptr, ptr, i32, i32, ptr, ...) @proto_tree_add_expert_format(ptr noundef %36, ptr noundef %37, ptr noundef @ei_ldp_tlv_fec_len, ptr noundef %38, i32 noundef %39, i32 noundef %40, ptr noundef @.str.1036)
  br label %42

42:                                               ; preds = %35, %32
  call void @llvm.lifetime.end.p0(i64 8, ptr %11) #7
  ret void
}