; Function Attrs: null_pointer_is_valid sspstrong uwtable
define internal fastcc void @dissect_tlv_mac(ptr noundef %0, ptr noundef %1, i32 noundef %2, ptr noundef %3, i32 noundef range(i32 0, 2147483644) %4) unnamed_addr #0 {
  %6 = load i32, ptr @ett_ldp_tlv_val, align 4
  %7 = tail call ptr @proto_tree_add_subtree(ptr noundef %3, ptr noundef %0, i32 noundef %2, i32 noundef %4, i32 noundef %6, ptr noundef null, ptr noundef nonnull @.str.1048)
  %8 = icmp samesign ugt i32 %4, 5
  br i1 %8, label %.lr.ph, label %._crit_edge

.lr.ph:                                           ; preds = %5, %.lr.ph
  %.017 = phi i32 [ %11, %.lr.ph ], [ %2, %5 ]
  %.01516 = phi i32 [ %12, %.lr.ph ], [ %4, %5 ]
  %9 = load i32, ptr @hf_ldp_tlv_mac, align 4
  %10 = tail call ptr @proto_tree_add_item(ptr noundef %7, i32 noundef %9, ptr noundef %0, i32 noundef %.017, i32 noundef 6, i32 noundef 0)
  %11 = add i32 %.017, 6
  %12 = add nsw i32 %.01516, -6
  %13 = icmp samesign ugt i32 %12, 5
  br i1 %13, label %.lr.ph, label %._crit_edge, !llvm.loop !19

._crit_edge:                                      ; preds = %.lr.ph, %5
  %.015.lcssa = phi i32 [ %4, %5 ], [ %12, %.lr.ph ]
  %.0.lcssa = phi i32 [ %2, %5 ], [ %11, %.lr.ph ]
  %.not = icmp eq i32 %.015.lcssa, 0
  br i1 %.not, label %16, label %14

14:                                               ; preds = %._crit_edge
  %15 = tail call ptr (ptr, ptr, ptr, ptr, i32, i32, ptr, ...) @proto_tree_add_expert_format(ptr noundef %7, ptr noundef %1, ptr noundef nonnull @ei_ldp_tlv_fec_len, ptr noundef %0, i32 noundef %.0.lcssa, i32 noundef %.015.lcssa, ptr noundef nonnull @.str.1036)
  br label %16

16:                                               ; preds = %14, %._crit_edge
  ret void
}